ARM GAS  /var/folders/q7/ltqlzqjj1rsdxtfpcv6hcz_80000gn/T//ccwDOWNG.s 			page 1


   1              		.cpu cortex-m4
   2              		.arch armv7e-m
   3              		.fpu fpv4-sp-d16
   4              		.eabi_attribute 27, 1
   5              		.eabi_attribute 28, 1
   6              		.eabi_attribute 20, 1
   7              		.eabi_attribute 21, 1
   8              		.eabi_attribute 23, 3
   9              		.eabi_attribute 24, 1
  10              		.eabi_attribute 25, 1
  11              		.eabi_attribute 26, 1
  12              		.eabi_attribute 30, 2
  13              		.eabi_attribute 34, 1
  14              		.eabi_attribute 18, 4
  15              		.file	"i2c.c"
  16              		.text
  17              		.section	.text.i2c_init,"ax",%progbits
  18              		.align	1
  19              		.p2align 2,,3
  20              		.global	i2c_init
  21              		.syntax unified
  22              		.thumb
  23              		.thumb_func
  25              	i2c_init:
  26              		@ args = 0, pretend = 0, frame = 0
  27              		@ frame_needed = 0, uses_anonymous_args = 0
  28              		@ link register save eliminated.
  29 0000 2E49     		ldr	r1, .L4
  30 0002 2F4B     		ldr	r3, .L4+4
  31 0004 D1F83008 		ldr	r0, [r1, #2096]
  32 0008 2E4A     		ldr	r2, .L4+8
  33 000a 40F00200 		orr	r0, r0, #2
  34 000e 10B4     		push	{r4}
  35 0010 C1F83008 		str	r0, [r1, #2096]
  36 0014 D1F84008 		ldr	r0, [r1, #2112]
  37 0018 40F40010 		orr	r0, r0, #2097152
  38 001c C1F84008 		str	r0, [r1, #2112]
  39 0020 D3F80014 		ldr	r1, [r3, #1024]
  40 0024 21F47041 		bic	r1, r1, #61440
  41 0028 C3F80014 		str	r1, [r3, #1024]
  42 002c D3F80014 		ldr	r1, [r3, #1024]
  43 0030 41F42041 		orr	r1, r1, #40960
  44 0034 C3F80014 		str	r1, [r3, #1024]
  45 0038 D3F80414 		ldr	r1, [r3, #1028]
  46 003c 41F0C001 		orr	r1, r1, #192
  47 0040 C3F80414 		str	r1, [r3, #1028]
  48 0044 D3F80814 		ldr	r1, [r3, #1032]
  49 0048 41F47041 		orr	r1, r1, #61440
  50 004c C3F80814 		str	r1, [r3, #1032]
  51 0050 D3F80C14 		ldr	r1, [r3, #1036]
  52 0054 21F47041 		bic	r1, r1, #61440
  53 0058 C3F80C14 		str	r1, [r3, #1036]
  54 005c D3F80C14 		ldr	r1, [r3, #1036]
  55 0060 41F4A041 		orr	r1, r1, #20480
  56 0064 C3F80C14 		str	r1, [r3, #1036]
  57 0068 D3F82014 		ldr	r1, [r3, #1056]
  58 006c 21F07F41 		bic	r1, r1, #-16777216
ARM GAS  /var/folders/q7/ltqlzqjj1rsdxtfpcv6hcz_80000gn/T//ccwDOWNG.s 			page 2


  59 0070 C3F82014 		str	r1, [r3, #1056]
  60 0074 D3F82014 		ldr	r1, [r3, #1056]
  61 0078 41F08841 		orr	r1, r1, #1140850688
  62 007c C3F82014 		str	r1, [r3, #1056]
  63 0080 D2F80034 		ldr	r3, [r2, #1024]
  64 0084 43F40043 		orr	r3, r3, #32768
  65 0088 C2F80034 		str	r3, [r2, #1024]
  66 008c D2F80034 		ldr	r3, [r2, #1024]
  67 0090 1024     		movs	r4, #16
  68 0092 23F40043 		bic	r3, r3, #32768
  69 0096 5020     		movs	r0, #80
  70 0098 1121     		movs	r1, #17
  71 009a C2F80034 		str	r3, [r2, #1024]
  72 009e C2F80444 		str	r4, [r2, #1028]
  73 00a2 C2F81C04 		str	r0, [r2, #1052]
  74 00a6 C2F82014 		str	r1, [r2, #1056]
  75 00aa D2F80034 		ldr	r3, [r2, #1024]
  76 00ae 43F00103 		orr	r3, r3, #1
  77 00b2 C2F80034 		str	r3, [r2, #1024]
  78 00b6 5DF8044B 		ldr	r4, [sp], #4
  79 00ba 7047     		bx	lr
  80              	.L5:
  81              		.align	2
  82              	.L4:
  83 00bc 00300240 		.word	1073885184
  84 00c0 00000240 		.word	1073872896
  85 00c4 00500040 		.word	1073762304
  87              		.section	.text.i2c_start,"ax",%progbits
  88              		.align	1
  89              		.p2align 2,,3
  90              		.global	i2c_start
  91              		.syntax unified
  92              		.thumb
  93              		.thumb_func
  95              	i2c_start:
  96              		@ args = 0, pretend = 0, frame = 0
  97              		@ frame_needed = 0, uses_anonymous_args = 0
  98              		@ link register save eliminated.
  99 0000 054A     		ldr	r2, .L10
 100 0002 D2F80034 		ldr	r3, [r2, #1024]
 101 0006 43F48073 		orr	r3, r3, #256
 102 000a C2F80034 		str	r3, [r2, #1024]
 103              	.L7:
 104 000e D2F81434 		ldr	r3, [r2, #1044]
 105 0012 DB07     		lsls	r3, r3, #31
 106 0014 FBD5     		bpl	.L7
 107 0016 7047     		bx	lr
 108              	.L11:
 109              		.align	2
 110              	.L10:
 111 0018 00500040 		.word	1073762304
 113              		.section	.text.i2c_stop,"ax",%progbits
 114              		.align	1
 115              		.p2align 2,,3
 116              		.global	i2c_stop
 117              		.syntax unified
 118              		.thumb
ARM GAS  /var/folders/q7/ltqlzqjj1rsdxtfpcv6hcz_80000gn/T//ccwDOWNG.s 			page 3


 119              		.thumb_func
 121              	i2c_stop:
 122              		@ args = 0, pretend = 0, frame = 0
 123              		@ frame_needed = 0, uses_anonymous_args = 0
 124              		@ link register save eliminated.
 125 0000 034A     		ldr	r2, .L13
 126 0002 D2F80034 		ldr	r3, [r2, #1024]
 127 0006 43F40073 		orr	r3, r3, #512
 128 000a C2F80034 		str	r3, [r2, #1024]
 129 000e 7047     		bx	lr
 130              	.L14:
 131              		.align	2
 132              	.L13:
 133 0010 00500040 		.word	1073762304
 135              		.section	.text.i2c_address,"ax",%progbits
 136              		.align	1
 137              		.p2align 2,,3
 138              		.global	i2c_address
 139              		.syntax unified
 140              		.thumb
 141              		.thumb_func
 143              	i2c_address:
 144              		@ args = 0, pretend = 0, frame = 0
 145              		@ frame_needed = 0, uses_anonymous_args = 0
 146              		@ link register save eliminated.
 147 0000 054A     		ldr	r2, .L19
 148 0002 41EA4001 		orr	r1, r1, r0, lsl #1
 149 0006 C2F81014 		str	r1, [r2, #1040]
 150              	.L16:
 151 000a D2F81434 		ldr	r3, [r2, #1044]
 152 000e 9B07     		lsls	r3, r3, #30
 153 0010 FBD5     		bpl	.L16
 154 0012 D2F81834 		ldr	r3, [r2, #1048]
 155 0016 7047     		bx	lr
 156              	.L20:
 157              		.align	2
 158              	.L19:
 159 0018 00500040 		.word	1073762304
 161              		.section	.text.i2c_write,"ax",%progbits
 162              		.align	1
 163              		.p2align 2,,3
 164              		.global	i2c_write
 165              		.syntax unified
 166              		.thumb
 167              		.thumb_func
 169              	i2c_write:
 170              		@ args = 0, pretend = 0, frame = 0
 171              		@ frame_needed = 0, uses_anonymous_args = 0
 172              		@ link register save eliminated.
 173 0000 064A     		ldr	r2, .L28
 174              	.L22:
 175 0002 D2F81434 		ldr	r3, [r2, #1044]
 176 0006 1906     		lsls	r1, r3, #24
 177 0008 FBD5     		bpl	.L22
 178 000a 0449     		ldr	r1, .L28
 179 000c C2F81004 		str	r0, [r2, #1040]
 180              	.L23:
ARM GAS  /var/folders/q7/ltqlzqjj1rsdxtfpcv6hcz_80000gn/T//ccwDOWNG.s 			page 4


 181 0010 D1F81434 		ldr	r3, [r1, #1044]
 182 0014 5B07     		lsls	r3, r3, #29
 183 0016 FBD5     		bpl	.L23
 184 0018 7047     		bx	lr
 185              	.L29:
 186 001a 00BF     		.align	2
 187              	.L28:
 188 001c 00500040 		.word	1073762304
 190              		.section	.text.i2c_read_ack,"ax",%progbits
 191              		.align	1
 192              		.p2align 2,,3
 193              		.global	i2c_read_ack
 194              		.syntax unified
 195              		.thumb
 196              		.thumb_func
 198              	i2c_read_ack:
 199              		@ args = 0, pretend = 0, frame = 0
 200              		@ frame_needed = 0, uses_anonymous_args = 0
 201              		@ link register save eliminated.
 202 0000 074A     		ldr	r2, .L34
 203 0002 D2F80034 		ldr	r3, [r2, #1024]
 204 0006 43F48063 		orr	r3, r3, #1024
 205 000a C2F80034 		str	r3, [r2, #1024]
 206              	.L31:
 207 000e D2F81434 		ldr	r3, [r2, #1044]
 208 0012 5B06     		lsls	r3, r3, #25
 209 0014 FBD5     		bpl	.L31
 210 0016 D2F81004 		ldr	r0, [r2, #1040]
 211 001a C0B2     		uxtb	r0, r0
 212 001c 7047     		bx	lr
 213              	.L35:
 214 001e 00BF     		.align	2
 215              	.L34:
 216 0020 00500040 		.word	1073762304
 218              		.section	.text.i2c_read_nack,"ax",%progbits
 219              		.align	1
 220              		.p2align 2,,3
 221              		.global	i2c_read_nack
 222              		.syntax unified
 223              		.thumb
 224              		.thumb_func
 226              	i2c_read_nack:
 227              		@ args = 0, pretend = 0, frame = 0
 228              		@ frame_needed = 0, uses_anonymous_args = 0
 229              		@ link register save eliminated.
 230 0000 0A4A     		ldr	r2, .L40
 231 0002 D2F80034 		ldr	r3, [r2, #1024]
 232 0006 23F48063 		bic	r3, r3, #1024
 233 000a C2F80034 		str	r3, [r2, #1024]
 234 000e D2F80034 		ldr	r3, [r2, #1024]
 235 0012 43F40073 		orr	r3, r3, #512
 236 0016 C2F80034 		str	r3, [r2, #1024]
 237              	.L37:
 238 001a D2F81434 		ldr	r3, [r2, #1044]
 239 001e 5B06     		lsls	r3, r3, #25
 240 0020 FBD5     		bpl	.L37
 241 0022 D2F81004 		ldr	r0, [r2, #1040]
ARM GAS  /var/folders/q7/ltqlzqjj1rsdxtfpcv6hcz_80000gn/T//ccwDOWNG.s 			page 5


 242 0026 C0B2     		uxtb	r0, r0
 243 0028 7047     		bx	lr
 244              	.L41:
 245 002a 00BF     		.align	2
 246              	.L40:
 247 002c 00500040 		.word	1073762304
 249              		.ident	"GCC: (Arm GNU Toolchain 14.3.Rel1 (Build arm-14.174)) 14.3.1 20250623"
ARM GAS  /var/folders/q7/ltqlzqjj1rsdxtfpcv6hcz_80000gn/T//ccwDOWNG.s 			page 6

