ARM GAS  /var/folders/q7/ltqlzqjj1rsdxtfpcv6hcz_80000gn/T//ccuOrjso.s 			page 1


   1              		.cpu cortex-m4
   2              		.arch armv7e-m
   3              		.fpu fpv4-sp-d16
   4              		.eabi_attribute 27, 1
   5              		.eabi_attribute 28, 1
   6              		.eabi_attribute 20, 1
   7              		.eabi_attribute 21, 1
   8              		.eabi_attribute 23, 3
   9              		.eabi_attribute 24, 1
  10              		.eabi_attribute 25, 1
  11              		.eabi_attribute 26, 1
  12              		.eabi_attribute 30, 2
  13              		.eabi_attribute 34, 1
  14              		.eabi_attribute 18, 4
  15              		.file	"led.c"
  16              		.text
  17              		.section	.text.led_init,"ax",%progbits
  18              		.align	1
  19              		.p2align 2,,3
  20              		.global	led_init
  21              		.syntax unified
  22              		.thumb
  23              		.thumb_func
  25              	led_init:
  26              		@ args = 0, pretend = 0, frame = 0
  27              		@ frame_needed = 0, uses_anonymous_args = 0
  28              		@ link register save eliminated.
  29 0000 0A49     		ldr	r1, .L3
  30 0002 0B4B     		ldr	r3, .L3+4
  31 0004 D1F83028 		ldr	r2, [r1, #2096]
  32 0008 42F00402 		orr	r2, r2, #4
  33 000c C1F83028 		str	r2, [r1, #2096]
  34 0010 D3F80028 		ldr	r2, [r3, #2048]
  35 0014 22F04062 		bic	r2, r2, #201326592
  36 0018 C3F80028 		str	r2, [r3, #2048]
  37 001c D3F80028 		ldr	r2, [r3, #2048]
  38 0020 42F08062 		orr	r2, r2, #67108864
  39 0024 C3F80028 		str	r2, [r3, #2048]
  40 0028 7047     		bx	lr
  41              	.L4:
  42 002a 00BF     		.align	2
  43              	.L3:
  44 002c 00300240 		.word	1073885184
  45 0030 00000240 		.word	1073872896
  47              		.section	.text.led_on,"ax",%progbits
  48              		.align	1
  49              		.p2align 2,,3
  50              		.global	led_on
  51              		.syntax unified
  52              		.thumb
  53              		.thumb_func
  55              	led_on:
  56              		@ args = 0, pretend = 0, frame = 0
  57              		@ frame_needed = 0, uses_anonymous_args = 0
  58              		@ link register save eliminated.
  59 0000 034A     		ldr	r2, .L6
  60 0002 D2F81438 		ldr	r3, [r2, #2068]
ARM GAS  /var/folders/q7/ltqlzqjj1rsdxtfpcv6hcz_80000gn/T//ccuOrjso.s 			page 2


  61 0006 23F40053 		bic	r3, r3, #8192
  62 000a C2F81438 		str	r3, [r2, #2068]
  63 000e 7047     		bx	lr
  64              	.L7:
  65              		.align	2
  66              	.L6:
  67 0010 00000240 		.word	1073872896
  69              		.section	.text.led_off,"ax",%progbits
  70              		.align	1
  71              		.p2align 2,,3
  72              		.global	led_off
  73              		.syntax unified
  74              		.thumb
  75              		.thumb_func
  77              	led_off:
  78              		@ args = 0, pretend = 0, frame = 0
  79              		@ frame_needed = 0, uses_anonymous_args = 0
  80              		@ link register save eliminated.
  81 0000 034A     		ldr	r2, .L9
  82 0002 D2F81438 		ldr	r3, [r2, #2068]
  83 0006 43F40053 		orr	r3, r3, #8192
  84 000a C2F81438 		str	r3, [r2, #2068]
  85 000e 7047     		bx	lr
  86              	.L10:
  87              		.align	2
  88              	.L9:
  89 0010 00000240 		.word	1073872896
  91              		.section	.text.led_toggle,"ax",%progbits
  92              		.align	1
  93              		.p2align 2,,3
  94              		.global	led_toggle
  95              		.syntax unified
  96              		.thumb
  97              		.thumb_func
  99              	led_toggle:
 100              		@ args = 0, pretend = 0, frame = 0
 101              		@ frame_needed = 0, uses_anonymous_args = 0
 102              		@ link register save eliminated.
 103 0000 034A     		ldr	r2, .L12
 104 0002 D2F81438 		ldr	r3, [r2, #2068]
 105 0006 83F40053 		eor	r3, r3, #8192
 106 000a C2F81438 		str	r3, [r2, #2068]
 107 000e 7047     		bx	lr
 108              	.L13:
 109              		.align	2
 110              	.L12:
 111 0010 00000240 		.word	1073872896
 113              		.section	.text.blink_led,"ax",%progbits
 114              		.align	1
 115              		.p2align 2,,3
 116              		.global	blink_led
 117              		.syntax unified
 118              		.thumb
 119              		.thumb_func
 121              	blink_led:
 122              		@ args = 0, pretend = 0, frame = 0
 123              		@ frame_needed = 0, uses_anonymous_args = 0
ARM GAS  /var/folders/q7/ltqlzqjj1rsdxtfpcv6hcz_80000gn/T//ccuOrjso.s 			page 3


 124 0000 10B5     		push	{r4, lr}
 125 0002 084C     		ldr	r4, .L16
 126 0004 D4F81438 		ldr	r3, [r4, #2068]
 127 0008 23F40053 		bic	r3, r3, #8192
 128 000c C4F81438 		str	r3, [r4, #2068]
 129 0010 FFF7FEFF 		bl	delay_ms
 130 0014 D4F81438 		ldr	r3, [r4, #2068]
 131 0018 43F40053 		orr	r3, r3, #8192
 132 001c C4F81438 		str	r3, [r4, #2068]
 133 0020 10BD     		pop	{r4, pc}
 134              	.L17:
 135 0022 00BF     		.align	2
 136              	.L16:
 137 0024 00000240 		.word	1073872896
 139              		.ident	"GCC: (Arm GNU Toolchain 14.3.Rel1 (Build arm-14.174)) 14.3.1 20250623"
ARM GAS  /var/folders/q7/ltqlzqjj1rsdxtfpcv6hcz_80000gn/T//ccuOrjso.s 			page 4

