ARM GAS  /var/folders/q7/ltqlzqjj1rsdxtfpcv6hcz_80000gn/T//ccaQV0w4.s 			page 1


   1              		.cpu cortex-m4
   2              		.arch armv7e-m
   3              		.fpu fpv4-sp-d16
   4              		.eabi_attribute 27, 1
   5              		.eabi_attribute 28, 1
   6              		.eabi_attribute 20, 1
   7              		.eabi_attribute 21, 1
   8              		.eabi_attribute 23, 3
   9              		.eabi_attribute 24, 1
  10              		.eabi_attribute 25, 1
  11              		.eabi_attribute 26, 1
  12              		.eabi_attribute 30, 2
  13              		.eabi_attribute 34, 1
  14              		.eabi_attribute 18, 4
  15              		.file	"main.c"
  16              		.text
  17              		.section	.rodata.main.str1.4,"aMS",%progbits,1
  18              		.align	2
  19              	.LC0:
  20 0000 0D0A3D3D 		.ascii	"\015\012=== STM32 MPU6050 Data Logger ===\015\012\000"
  20      3D205354 
  20      4D333220 
  20      4D505536 
  20      30353020 
  21 0026 0000     		.align	2
  22              	.LC1:
  23 0028 496E6974 		.ascii	"Initializing...\015\012\000"
  23      69616C69 
  23      7A696E67 
  23      2E2E2E0D 
  23      0A00
  24 003a 0000     		.align	2
  25              	.LC2:
  26 003c 4D505536 		.ascii	"MPU6050 WHO_AM_I: 0x\000"
  26      30353020 
  26      57484F5F 
  26      414D5F49 
  26      3A203078 
  27 0051 000000   		.align	2
  28              	.LC3:
  29 0054 0D0A00   		.ascii	"\015\012\000"
  30 0057 00       		.align	2
  31              	.LC4:
  32 0058 4D505536 		.ascii	"MPU6050 found! Starting data logging...\015\012\015"
  32      30353020 
  32      666F756E 
  32      64212053 
  32      74617274 
  33 0082 0A00     		.ascii	"\012\000"
  34              		.align	2
  35              	.LC5:
  36 0084 41636365 		.ascii	"Accel: X=\000"
  36      6C3A2058 
  36      3D00
  37 008e 0000     		.align	2
  38              	.LC6:
  39 0090 20593D00 		.ascii	" Y=\000"
ARM GAS  /var/folders/q7/ltqlzqjj1rsdxtfpcv6hcz_80000gn/T//ccaQV0w4.s 			page 2


  40              		.align	2
  41              	.LC7:
  42 0094 205A3D00 		.ascii	" Z=\000"
  43              		.align	2
  44              	.LC8:
  45 0098 207C2047 		.ascii	" | Gyro: X=\000"
  45      79726F3A 
  45      20583D00 
  46              		.align	2
  47              	.LC9:
  48 00a4 4552524F 		.ascii	"ERROR: MPU6050 not found!\015\012\000"
  48      523A204D 
  48      50553630 
  48      3530206E 
  48      6F742066 
  49              		.section	.text.startup.main,"ax",%progbits
  50              		.align	1
  51              		.p2align 2,,3
  52              		.global	main
  53              		.syntax unified
  54              		.thumb
  55              		.thumb_func
  57              	main:
  58              		@ args = 0, pretend = 0, frame = 16
  59              		@ frame_needed = 0, uses_anonymous_args = 0
  60 0000 10B5     		push	{r4, lr}
  61 0002 84B0     		sub	sp, sp, #16
  62 0004 FFF7FEFF 		bl	led_init
  63 0008 FFF7FEFF 		bl	uart_init
  64 000c FFF7FEFF 		bl	i2c_init
  65 0010 3948     		ldr	r0, .L8
  66 0012 FFF7FEFF 		bl	uart_puts
  67 0016 3948     		ldr	r0, .L8+4
  68 0018 FFF7FEFF 		bl	uart_puts
  69 001c 4FF47A70 		mov	r0, #1000
  70 0020 FFF7FEFF 		bl	blink_led
  71 0024 6820     		movs	r0, #104
  72 0026 FFF7FEFF 		bl	mpu6050_init
  73 002a C820     		movs	r0, #200
  74 002c FFF7FEFF 		bl	delay_ms
  75 0030 6420     		movs	r0, #100
  76 0032 FFF7FEFF 		bl	blink_led
  77 0036 6420     		movs	r0, #100
  78 0038 FFF7FEFF 		bl	blink_led
  79 003c FFF7FEFF 		bl	mpu6050_who_am_i
  80 0040 0446     		mov	r4, r0
  81 0042 2F48     		ldr	r0, .L8+8
  82 0044 FFF7FEFF 		bl	uart_puts
  83 0048 2046     		mov	r0, r4
  84 004a FFF7FEFF 		bl	uart_putint
  85 004e 2D48     		ldr	r0, .L8+12
  86 0050 FFF7FEFF 		bl	uart_puts
  87 0054 682C     		cmp	r4, #104
  88 0056 09D0     		beq	.L7
  89 0058 2B48     		ldr	r0, .L8+16
  90 005a FFF7FEFF 		bl	uart_puts
  91              	.L4:
ARM GAS  /var/folders/q7/ltqlzqjj1rsdxtfpcv6hcz_80000gn/T//ccaQV0w4.s 			page 3


  92 005e FFF7FEFF 		bl	led_toggle
  93 0062 4FF47A70 		mov	r0, #1000
  94 0066 FFF7FEFF 		bl	delay_ms
  95 006a F8E7     		b	.L4
  96              	.L7:
  97 006c 2748     		ldr	r0, .L8+20
  98 006e FFF7FEFF 		bl	uart_puts
  99 0072 FFF7FEFF 		bl	led_on
 100              	.L3:
 101 0076 02AA     		add	r2, sp, #8
 102 0078 0DF10601 		add	r1, sp, #6
 103 007c 01A8     		add	r0, sp, #4
 104 007e FFF7FEFF 		bl	mpu6050_read_accel
 105 0082 0DF10E02 		add	r2, sp, #14
 106 0086 03A9     		add	r1, sp, #12
 107 0088 0DF10A00 		add	r0, sp, #10
 108 008c FFF7FEFF 		bl	mpu6050_read_gyro
 109 0090 1F48     		ldr	r0, .L8+24
 110 0092 FFF7FEFF 		bl	uart_puts
 111 0096 BDF90400 		ldrsh	r0, [sp, #4]
 112 009a FFF7FEFF 		bl	uart_putint
 113 009e 1D48     		ldr	r0, .L8+28
 114 00a0 FFF7FEFF 		bl	uart_puts
 115 00a4 BDF90600 		ldrsh	r0, [sp, #6]
 116 00a8 FFF7FEFF 		bl	uart_putint
 117 00ac 1A48     		ldr	r0, .L8+32
 118 00ae FFF7FEFF 		bl	uart_puts
 119 00b2 BDF90800 		ldrsh	r0, [sp, #8]
 120 00b6 FFF7FEFF 		bl	uart_putint
 121 00ba 1848     		ldr	r0, .L8+36
 122 00bc FFF7FEFF 		bl	uart_puts
 123 00c0 BDF90A00 		ldrsh	r0, [sp, #10]
 124 00c4 FFF7FEFF 		bl	uart_putint
 125 00c8 1248     		ldr	r0, .L8+28
 126 00ca FFF7FEFF 		bl	uart_puts
 127 00ce BDF90C00 		ldrsh	r0, [sp, #12]
 128 00d2 FFF7FEFF 		bl	uart_putint
 129 00d6 1048     		ldr	r0, .L8+32
 130 00d8 FFF7FEFF 		bl	uart_puts
 131 00dc BDF90E00 		ldrsh	r0, [sp, #14]
 132 00e0 FFF7FEFF 		bl	uart_putint
 133 00e4 0748     		ldr	r0, .L8+12
 134 00e6 FFF7FEFF 		bl	uart_puts
 135 00ea FFF7FEFF 		bl	led_toggle
 136 00ee C820     		movs	r0, #200
 137 00f0 FFF7FEFF 		bl	delay_ms
 138 00f4 BFE7     		b	.L3
 139              	.L9:
 140 00f6 00BF     		.align	2
 141              	.L8:
 142 00f8 00000000 		.word	.LC0
 143 00fc 28000000 		.word	.LC1
 144 0100 3C000000 		.word	.LC2
 145 0104 54000000 		.word	.LC3
 146 0108 A4000000 		.word	.LC9
 147 010c 58000000 		.word	.LC4
 148 0110 84000000 		.word	.LC5
ARM GAS  /var/folders/q7/ltqlzqjj1rsdxtfpcv6hcz_80000gn/T//ccaQV0w4.s 			page 4


 149 0114 90000000 		.word	.LC6
 150 0118 94000000 		.word	.LC7
 151 011c 98000000 		.word	.LC8
 153              		.ident	"GCC: (Arm GNU Toolchain 14.3.Rel1 (Build arm-14.174)) 14.3.1 20250623"
ARM GAS  /var/folders/q7/ltqlzqjj1rsdxtfpcv6hcz_80000gn/T//ccaQV0w4.s 			page 5


DEFINED SYMBOLS
                            *ABS*:00000000 main.c
/var/folders/q7/ltqlzqjj1rsdxtfpcv6hcz_80000gn/T//ccaQV0w4.s:18     .rodata.main.str1.4:00000000 $d
/var/folders/q7/ltqlzqjj1rsdxtfpcv6hcz_80000gn/T//ccaQV0w4.s:50     .text.startup.main:00000000 $t
/var/folders/q7/ltqlzqjj1rsdxtfpcv6hcz_80000gn/T//ccaQV0w4.s:57     .text.startup.main:00000000 main
/var/folders/q7/ltqlzqjj1rsdxtfpcv6hcz_80000gn/T//ccaQV0w4.s:142    .text.startup.main:000000f8 $d

UNDEFINED SYMBOLS
led_init
uart_init
i2c_init
uart_puts
blink_led
mpu6050_init
delay_ms
mpu6050_who_am_i
uart_putint
led_toggle
led_on
mpu6050_read_accel
mpu6050_read_gyro
