ARM GAS  /var/folders/q7/ltqlzqjj1rsdxtfpcv6hcz_80000gn/T//ccFIfnTB.s 			page 1


   1              		.cpu cortex-m4
   2              		.arch armv7e-m
   3              		.fpu fpv4-sp-d16
   4              		.eabi_attribute 27, 1
   5              		.eabi_attribute 28, 1
   6              		.eabi_attribute 20, 1
   7              		.eabi_attribute 21, 1
   8              		.eabi_attribute 23, 3
   9              		.eabi_attribute 24, 1
  10              		.eabi_attribute 25, 1
  11              		.eabi_attribute 26, 1
  12              		.eabi_attribute 30, 2
  13              		.eabi_attribute 34, 1
  14              		.eabi_attribute 18, 4
  15              		.file	"mpu6050.c"
  16              		.text
  17              		.section	.text.mpu6050_read_bytes.constprop.0,"ax",%progbits
  18              		.align	1
  19              		.p2align 2,,3
  20              		.syntax unified
  21              		.thumb
  22              		.thumb_func
  24              	mpu6050_read_bytes.constprop.0:
  25              		@ args = 0, pretend = 0, frame = 0
  26              		@ frame_needed = 0, uses_anonymous_args = 0
  27 0000 70B5     		push	{r4, r5, r6, lr}
  28 0002 0F4D     		ldr	r5, .L6
  29 0004 0446     		mov	r4, r0
  30 0006 0E46     		mov	r6, r1
  31 0008 FFF7FEFF 		bl	i2c_start
  32 000c 0021     		movs	r1, #0
  33 000e 2878     		ldrb	r0, [r5]	@ zero_extendqisi2
  34 0010 FFF7FEFF 		bl	i2c_address
  35 0014 2046     		mov	r0, r4
  36 0016 FFF7FEFF 		bl	i2c_write
  37 001a FFF7FEFF 		bl	i2c_start
  38 001e 2878     		ldrb	r0, [r5]	@ zero_extendqisi2
  39 0020 0121     		movs	r1, #1
  40 0022 FFF7FEFF 		bl	i2c_address
  41 0026 741E     		subs	r4, r6, #1
  42 0028 351D     		adds	r5, r6, #4
  43              	.L2:
  44 002a FFF7FEFF 		bl	i2c_read_ack
  45 002e 04F8010F 		strb	r0, [r4, #1]!
  46 0032 AC42     		cmp	r4, r5
  47 0034 F9D1     		bne	.L2
  48 0036 FFF7FEFF 		bl	i2c_read_nack
  49 003a 7071     		strb	r0, [r6, #5]
  50 003c 70BD     		pop	{r4, r5, r6, pc}
  51              	.L7:
  52 003e 00BF     		.align	2
  53              	.L6:
  54 0040 00000000 		.word	mpu6050_addr
  56              		.section	.text.mpu6050_init,"ax",%progbits
  57              		.align	1
  58              		.p2align 2,,3
  59              		.global	mpu6050_init
ARM GAS  /var/folders/q7/ltqlzqjj1rsdxtfpcv6hcz_80000gn/T//ccFIfnTB.s 			page 2


  60              		.syntax unified
  61              		.thumb
  62              		.thumb_func
  64              	mpu6050_init:
  65              		@ args = 0, pretend = 0, frame = 0
  66              		@ frame_needed = 0, uses_anonymous_args = 0
  67 0000 10B5     		push	{r4, lr}
  68 0002 094C     		ldr	r4, .L10
  69 0004 2070     		strb	r0, [r4]
  70 0006 FFF7FEFF 		bl	i2c_start
  71 000a 2078     		ldrb	r0, [r4]	@ zero_extendqisi2
  72 000c 0021     		movs	r1, #0
  73 000e FFF7FEFF 		bl	i2c_address
  74 0012 6B20     		movs	r0, #107
  75 0014 FFF7FEFF 		bl	i2c_write
  76 0018 0020     		movs	r0, #0
  77 001a FFF7FEFF 		bl	i2c_write
  78 001e BDE81040 		pop	{r4, lr}
  79 0022 FFF7FEBF 		b	i2c_stop
  80              	.L11:
  81 0026 00BF     		.align	2
  82              	.L10:
  83 0028 00000000 		.word	mpu6050_addr
  85              		.section	.text.mpu6050_who_am_i,"ax",%progbits
  86              		.align	1
  87              		.p2align 2,,3
  88              		.global	mpu6050_who_am_i
  89              		.syntax unified
  90              		.thumb
  91              		.thumb_func
  93              	mpu6050_who_am_i:
  94              		@ args = 0, pretend = 0, frame = 0
  95              		@ frame_needed = 0, uses_anonymous_args = 0
  96 0000 10B5     		push	{r4, lr}
  97 0002 0A4C     		ldr	r4, .L14
  98 0004 FFF7FEFF 		bl	i2c_start
  99 0008 0021     		movs	r1, #0
 100 000a 2078     		ldrb	r0, [r4]	@ zero_extendqisi2
 101 000c FFF7FEFF 		bl	i2c_address
 102 0010 7520     		movs	r0, #117
 103 0012 FFF7FEFF 		bl	i2c_write
 104 0016 FFF7FEFF 		bl	i2c_start
 105 001a 2078     		ldrb	r0, [r4]	@ zero_extendqisi2
 106 001c 0121     		movs	r1, #1
 107 001e FFF7FEFF 		bl	i2c_address
 108 0022 BDE81040 		pop	{r4, lr}
 109 0026 FFF7FEBF 		b	i2c_read_nack
 110              	.L15:
 111 002a 00BF     		.align	2
 112              	.L14:
 113 002c 00000000 		.word	mpu6050_addr
 115              		.section	.text.mpu6050_read_accel,"ax",%progbits
 116              		.align	1
 117              		.p2align 2,,3
 118              		.global	mpu6050_read_accel
 119              		.syntax unified
 120              		.thumb
ARM GAS  /var/folders/q7/ltqlzqjj1rsdxtfpcv6hcz_80000gn/T//ccFIfnTB.s 			page 3


 121              		.thumb_func
 123              	mpu6050_read_accel:
 124              		@ args = 0, pretend = 0, frame = 8
 125              		@ frame_needed = 0, uses_anonymous_args = 0
 126 0000 70B5     		push	{r4, r5, r6, lr}
 127 0002 82B0     		sub	sp, sp, #8
 128 0004 0646     		mov	r6, r0
 129 0006 0D46     		mov	r5, r1
 130 0008 3B20     		movs	r0, #59
 131 000a 6946     		mov	r1, sp
 132 000c 1446     		mov	r4, r2
 133 000e FFF7FEFF 		bl	mpu6050_read_bytes.constprop.0
 134 0012 BDF80030 		ldrh	r3, [sp]
 135 0016 BDF80220 		ldrh	r2, [sp, #2]
 136 001a 5BBA     		rev16	r3, r3
 137 001c 3380     		strh	r3, [r6]	@ movhi
 138 001e BDF80430 		ldrh	r3, [sp, #4]
 139 0022 52BA     		rev16	r2, r2
 140 0024 5BBA     		rev16	r3, r3
 141 0026 2A80     		strh	r2, [r5]	@ movhi
 142 0028 2380     		strh	r3, [r4]	@ movhi
 143 002a 02B0     		add	sp, sp, #8
 144              		@ sp needed
 145 002c 70BD     		pop	{r4, r5, r6, pc}
 147 002e 00BF     		.section	.text.mpu6050_read_gyro,"ax",%progbits
 148              		.align	1
 149              		.p2align 2,,3
 150              		.global	mpu6050_read_gyro
 151              		.syntax unified
 152              		.thumb
 153              		.thumb_func
 155              	mpu6050_read_gyro:
 156              		@ args = 0, pretend = 0, frame = 8
 157              		@ frame_needed = 0, uses_anonymous_args = 0
 158 0000 70B5     		push	{r4, r5, r6, lr}
 159 0002 82B0     		sub	sp, sp, #8
 160 0004 0646     		mov	r6, r0
 161 0006 0D46     		mov	r5, r1
 162 0008 4320     		movs	r0, #67
 163 000a 6946     		mov	r1, sp
 164 000c 1446     		mov	r4, r2
 165 000e FFF7FEFF 		bl	mpu6050_read_bytes.constprop.0
 166 0012 BDF80030 		ldrh	r3, [sp]
 167 0016 BDF80220 		ldrh	r2, [sp, #2]
 168 001a 5BBA     		rev16	r3, r3
 169 001c 3380     		strh	r3, [r6]	@ movhi
 170 001e BDF80430 		ldrh	r3, [sp, #4]
 171 0022 52BA     		rev16	r2, r2
 172 0024 5BBA     		rev16	r3, r3
 173 0026 2A80     		strh	r2, [r5]	@ movhi
 174 0028 2380     		strh	r3, [r4]	@ movhi
 175 002a 02B0     		add	sp, sp, #8
 176              		@ sp needed
 177 002c 70BD     		pop	{r4, r5, r6, pc}
 179 002e 00BF     		.section	.bss.mpu6050_addr,"aw",%nobits
 182              	mpu6050_addr:
 183 0000 00       		.space	1
ARM GAS  /var/folders/q7/ltqlzqjj1rsdxtfpcv6hcz_80000gn/T//ccFIfnTB.s 			page 4


 184              		.ident	"GCC: (Arm GNU Toolchain 14.3.Rel1 (Build arm-14.174)) 14.3.1 20250623"
ARM GAS  /var/folders/q7/ltqlzqjj1rsdxtfpcv6hcz_80000gn/T//ccFIfnTB.s 			page 5

